target datalayout = "e-m:e-p270:32:32-p271:32:32-p272:64:64-i64:64-i128:128-f80:128-n8:16:32:64-S128"
target triple = "x86_64-pc-linux-gnu"

%struct.AVCodecContext = type { ptr, i32, i32, ptr, i32, i32, ptr, ptr, ptr, i64, i32, i32, ptr, i32, %struct.AVRational, %struct.AVRational, %struct.AVRational, i32, i32, i32, i32, i32, %struct.AVRational, i32, i32, i32, i32, i32, i32, i32, i32, i32, i32, i32, ptr, ptr, i32, float, float, float, float, float, float, float, float, float, i32, i32, i32, i32, i32, i32, i32, i32, i32, i32, i32, i32, ptr, ptr, ptr, i32, i32, i32, i32, i32, i32, i32, i32, i32, i32, %struct.AVChannelLayout, i32, i32, i32, i32, i32, i32, i32, i32, ptr, i32, i32, i32, float, float, i32, i32, i32, i32, i32, ptr, i64, i64, float, float, i32, i32, ptr, ptr, i32, i32, i32, i32, i32, ptr, ptr, ptr, ptr, i32, i32, [8 x i64], i32, i32, i32, i32, i32, i32, i32, ptr, ptr, i32, i32, i32, i32, i32, i32, i32, i32, i32, i32, ptr, ptr, i32, i32, ptr, ptr, ptr, ptr, i32, i32, i64, i32, i32, i64, ptr, i64, ptr, i32, ptr, i32 }
%struct.AVRational = type { i32, i32 }
%struct.AVChannelLayout = type { i32, i32, %union.anon, ptr }
%union.anon = type { i64 }
%struct.AVCodecInternal = type { i32, i32, i32, ptr, ptr, ptr, ptr, ptr, ptr, ptr, i32, ptr, ptr, ptr, i32, i32, ptr, i32, ptr, ptr, i32, i32 }
%struct.VAAPIDecodePicture = type { i32, i32, ptr, i32, i32, ptr, i32 }
%struct.VAAPIDecodeContext = type { i32, i32, ptr, ptr, ptr, ptr, i32, i32, %struct._VASurfaceAttrib }
%struct._VASurfaceAttrib = type { i32, i32, %struct._VAGenericValue }
%struct._VAGenericValue = type { i32, %union.anon.0 }
%union.anon.0 = type { ptr }
%struct.AVVAAPIDeviceContext = type { ptr, i32 }

@.str.22 = private unnamed_addr constant [50 x i8] c"Failed to destroy parameter buffer %#x: %d (%s).\0A\00", align 1
@.str.23 = private unnamed_addr constant [52 x i8] c"Failed to destroy slice slice buffer %#x: %d (%s).\0A\00", align 1

; Function Attrs: nounwind uwtable
define internal void @ff_vaapi_decode_destroy_buffers(ptr noundef %0, ptr noundef %1) #0 {
  %3 = alloca ptr, align 8
  %4 = alloca ptr, align 8
  %5 = alloca ptr, align 8
  %6 = alloca i32, align 4
  %7 = alloca i32, align 4
  store ptr %0, ptr %3, align 8, !tbaa !4
  store ptr %1, ptr %4, align 8, !tbaa !9
  call void @llvm.lifetime.start.p0(i64 8, ptr %5) #6
  %8 = load ptr, ptr %3, align 8, !tbaa !4
  %9 = getelementptr inbounds nuw %struct.AVCodecContext, ptr %8, i32 0, i32 7
  %10 = load ptr, ptr %9, align 8, !tbaa !16
  %11 = getelementptr inbounds nuw %struct.AVCodecInternal, ptr %10, i32 0, i32 16
  %12 = load ptr, ptr %11, align 8, !tbaa !34
  store ptr %12, ptr %5, align 8, !tbaa !41
  call void @llvm.lifetime.start.p0(i64 4, ptr %6) #6
  call void @llvm.lifetime.start.p0(i64 4, ptr %7) #6
  store i32 0, ptr %7, align 4, !tbaa !11
  br label %13

13:                                               ; preds = %48, %2
  %14 = load i32, ptr %7, align 4, !tbaa !11
  %15 = load ptr, ptr %4, align 8, !tbaa !9
  %16 = getelementptr inbounds nuw %struct.VAAPIDecodePicture, ptr %15, i32 0, i32 1
  %17 = load i32, ptr %16, align 4, !tbaa !43
  %18 = icmp slt i32 %14, %17
  br i1 %18, label %19, label %51

19:                                               ; preds = %13
  %20 = load ptr, ptr %5, align 8, !tbaa !41
  %21 = getelementptr inbounds nuw %struct.VAAPIDecodeContext, ptr %20, i32 0, i32 3
  %22 = load ptr, ptr %21, align 8, !tbaa !48
  %23 = getelementptr inbounds nuw %struct.AVVAAPIDeviceContext, ptr %22, i32 0, i32 0
  %24 = load ptr, ptr %23, align 8, !tbaa !56
  %25 = load ptr, ptr %4, align 8, !tbaa !9
  %26 = getelementptr inbounds nuw %struct.VAAPIDecodePicture, ptr %25, i32 0, i32 2
  %27 = load ptr, ptr %26, align 8, !tbaa !46
  %28 = load i32, ptr %7, align 4, !tbaa !11
  %29 = sext i32 %28 to i64
  %30 = getelementptr inbounds i32, ptr %27, i64 %29
  %31 = load i32, ptr %30, align 4, !tbaa !11
  %32 = call i32 @vaDestroyBuffer(ptr noundef %24, i32 noundef %31)
  store i32 %32, ptr %6, align 4, !tbaa !11
  %33 = load i32, ptr %6, align 4, !tbaa !11
  %34 = icmp ne i32 %33, 0
  br i1 %34, label %35, label %47

35:                                               ; preds = %19
  %36 = load ptr, ptr %3, align 8, !tbaa !4
  %37 = load ptr, ptr %4, align 8, !tbaa !9
  %38 = getelementptr inbounds nuw %struct.VAAPIDecodePicture, ptr %37, i32 0, i32 2
  %39 = load ptr, ptr %38, align 8, !tbaa !46
  %40 = load i32, ptr %7, align 4, !tbaa !11
  %41 = sext i32 %40 to i64
  %42 = getelementptr inbounds i32, ptr %39, i64 %41
  %43 = load i32, ptr %42, align 4, !tbaa !11
  %44 = load i32, ptr %6, align 4, !tbaa !11
  %45 = load i32, ptr %6, align 4, !tbaa !11
  %46 = call ptr @vaErrorStr(i32 noundef %45)
  call void (ptr, i32, ptr, ...) @av_log(ptr noundef %36, i32 noundef 16, ptr noundef @.str.22, i32 noundef %43, i32 noundef %44, ptr noundef %46)
  br label %47

47:                                               ; preds = %35, %19
  br label %48

48:                                               ; preds = %47
  %49 = load i32, ptr %7, align 4, !tbaa !11
  %50 = add nsw i32 %49, 1
  store i32 %50, ptr %7, align 4, !tbaa !11
  br label %13, !llvm.loop !63

51:                                               ; preds = %13
  store i32 0, ptr %7, align 4, !tbaa !11
  br label %52

52:                                               ; preds = %88, %51
  %53 = load i32, ptr %7, align 4, !tbaa !11
  %54 = load ptr, ptr %4, align 8, !tbaa !9
  %55 = getelementptr inbounds nuw %struct.VAAPIDecodePicture, ptr %54, i32 0, i32 4
  %56 = load i32, ptr %55, align 4, !tbaa !59
  %57 = mul nsw i32 2, %56
  %58 = icmp slt i32 %53, %57
  br i1 %58, label %59, label %91

59:                                               ; preds = %52
  %60 = load ptr, ptr %5, align 8, !tbaa !41
  %61 = getelementptr inbounds nuw %struct.VAAPIDecodeContext, ptr %60, i32 0, i32 3
  %62 = load ptr, ptr %61, align 8, !tbaa !48
  %63 = getelementptr inbounds nuw %struct.AVVAAPIDeviceContext, ptr %62, i32 0, i32 0
  %64 = load ptr, ptr %63, align 8, !tbaa !56
  %65 = load ptr, ptr %4, align 8, !tbaa !9
  %66 = getelementptr inbounds nuw %struct.VAAPIDecodePicture, ptr %65, i32 0, i32 5
  %67 = load ptr, ptr %66, align 8, !tbaa !61
  %68 = load i32, ptr %7, align 4, !tbaa !11
  %69 = sext i32 %68 to i64
  %70 = getelementptr inbounds i32, ptr %67, i64 %69
  %71 = load i32, ptr %70, align 4, !tbaa !11
  %72 = call i32 @vaDestroyBuffer(ptr noundef %64, i32 noundef %71)
  store i32 %72, ptr %6, align 4, !tbaa !11
  %73 = load i32, ptr %6, align 4, !tbaa !11
  %74 = icmp ne i32 %73, 0
  br i1 %74, label %75, label %87

75:                                               ; preds = %59
  %76 = load ptr, ptr %3, align 8, !tbaa !4
  %77 = load ptr, ptr %4, align 8, !tbaa !9
  %78 = getelementptr inbounds nuw %struct.VAAPIDecodePicture, ptr %77, i32 0, i32 5
  %79 = load ptr, ptr %78, align 8, !tbaa !61
  %80 = load i32, ptr %7, align 4, !tbaa !11
  %81 = sext i32 %80 to i64
  %82 = getelementptr inbounds i32, ptr %79, i64 %81
  %83 = load i32, ptr %82, align 4, !tbaa !11
  %84 = load i32, ptr %6, align 4, !tbaa !11
  %85 = load i32, ptr %6, align 4, !tbaa !11
  %86 = call ptr @vaErrorStr(i32 noundef %85)
  call void (ptr, i32, ptr, ...) @av_log(ptr noundef %76, i32 noundef 16, ptr noundef @.str.23, i32 noundef %83, i32 noundef %84, ptr noundef %86)
  br label %87

87:                                               ; preds = %75, %59
  br label %88

88:                                               ; preds = %87
  %89 = load i32, ptr %7, align 4, !tbaa !11
  %90 = add nsw i32 %89, 1
  store i32 %90, ptr %7, align 4, !tbaa !11
  br label %52, !llvm.loop !65

91:                                               ; preds = %52
  call void @llvm.lifetime.end.p0(i64 4, ptr %7) #6
  call void @llvm.lifetime.end.p0(i64 4, ptr %6) #6
  call void @llvm.lifetime.end.p0(i64 8, ptr %5) #6
  ret void
}