; Function Attrs: nounwind uwtable
define internal fastcc void @ff_vaapi_decode_destroy_buffers(ptr noundef %0, ptr noundef readonly captures(none) %1) unnamed_addr #0 {
  %3 = getelementptr inbounds nuw i8, ptr %0, i64 40
  %4 = load ptr, ptr %3, align 8, !tbaa !4
  %5 = getelementptr inbounds nuw i8, ptr %4, i64 112
  %6 = load ptr, ptr %5, align 8, !tbaa !27
  %7 = getelementptr inbounds nuw i8, ptr %1, i64 4
  %8 = load i32, ptr %7, align 4, !tbaa !34
  %9 = icmp sgt i32 %8, 0
  br i1 %9, label %.lr.ph, label %.preheader

.lr.ph:                                           ; preds = %2
  %10 = getelementptr inbounds nuw i8, ptr %6, i64 16
  %11 = getelementptr inbounds nuw i8, ptr %1, i64 8
  br label %17

.preheader:                                       ; preds = %29, %2
  %12 = getelementptr inbounds nuw i8, ptr %1, i64 20
  %13 = load i32, ptr %12, align 4, !tbaa !50
  %14 = icmp sgt i32 %13, 0
  br i1 %14, label %.lr.ph29, label %._crit_edge

.lr.ph29:                                         ; preds = %.preheader
  %15 = getelementptr inbounds nuw i8, ptr %6, i64 16
  %16 = getelementptr inbounds nuw i8, ptr %1, i64 24
  br label %33

17:                                               ; preds = %.lr.ph, %29
  %indvars.iv = phi i64 [ 0, %.lr.ph ], [ %indvars.iv.next, %29 ]
  %18 = load ptr, ptr %10, align 8, !tbaa !38
  %19 = load ptr, ptr %18, align 8, !tbaa !46
  %20 = load ptr, ptr %11, align 8, !tbaa !37
  %21 = getelementptr inbounds nuw i32, ptr %20, i64 %indvars.iv
  %22 = load i32, ptr %21, align 4, !tbaa !49
  %23 = tail call i32 @vaDestroyBuffer(ptr noundef %19, i32 noundef %22) #4
  %.not26 = icmp eq i32 %23, 0
  br i1 %.not26, label %29, label %24

24:                                               ; preds = %17
  %25 = load ptr, ptr %11, align 8, !tbaa !37
  %26 = getelementptr inbounds nuw i32, ptr %25, i64 %indvars.iv
  %27 = load i32, ptr %26, align 4, !tbaa !49
  %28 = tail call ptr @vaErrorStr(i32 noundef %23) #4
  tail call void (ptr, i32, ptr, ...) @av_log(ptr noundef %0, i32 noundef 16, ptr noundef nonnull @.str.22, i32 noundef %27, i32 noundef %23, ptr noundef %28) #4
  br label %29

29:                                               ; preds = %17, %24
  %indvars.iv.next = add nuw nsw i64 %indvars.iv, 1
  %30 = load i32, ptr %7, align 4, !tbaa !34
  %31 = sext i32 %30 to i64
  %32 = icmp slt i64 %indvars.iv.next, %31
  br i1 %32, label %17, label %.preheader, !llvm.loop !54

33:                                               ; preds = %.lr.ph29, %45
  %indvars.iv31 = phi i64 [ 0, %.lr.ph29 ], [ %indvars.iv.next32, %45 ]
  %34 = load ptr, ptr %15, align 8, !tbaa !38
  %35 = load ptr, ptr %34, align 8, !tbaa !46
  %36 = load ptr, ptr %16, align 8, !tbaa !52
  %37 = getelementptr inbounds nuw i32, ptr %36, i64 %indvars.iv31
  %38 = load i32, ptr %37, align 4, !tbaa !49
  %39 = tail call i32 @vaDestroyBuffer(ptr noundef %35, i32 noundef %38) #4
  %.not = icmp eq i32 %39, 0
  br i1 %.not, label %45, label %40

40:                                               ; preds = %33
  %41 = load ptr, ptr %16, align 8, !tbaa !52
  %42 = getelementptr inbounds nuw i32, ptr %41, i64 %indvars.iv31
  %43 = load i32, ptr %42, align 4, !tbaa !49
  %44 = tail call ptr @vaErrorStr(i32 noundef %39) #4
  tail call void (ptr, i32, ptr, ...) @av_log(ptr noundef %0, i32 noundef 16, ptr noundef nonnull @.str.23, i32 noundef %43, i32 noundef %39, ptr noundef %44) #4
  br label %45

45:                                               ; preds = %33, %40
  %indvars.iv.next32 = add nuw nsw i64 %indvars.iv31, 1
  %46 = load i32, ptr %12, align 4, !tbaa !50
  %47 = shl nsw i32 %46, 1
  %48 = sext i32 %47 to i64
  %49 = icmp slt i64 %indvars.iv.next32, %48
  br i1 %49, label %33, label %._crit_edge, !llvm.loop !56

._crit_edge:                                      ; preds = %45, %.preheader
  ret void
}